; Function Attrs: mustprogress nounwind uwtable
define hidden void @_ZN10duckdb_re215PrefixSuccessorEPNSt7__cxx1112basic_stringIcSt11char_traitsIcESaIcEEE(ptr noundef %0) local_unnamed_addr #4 personality ptr @__gxx_personality_v0 {
  %2 = getelementptr inbounds nuw i8, ptr %0, i64 8
  br label %_ZNSt7__cxx1112basic_stringIcSt11char_traitsIcESaIcEE8pop_backEv.exit

_ZNSt7__cxx1112basic_stringIcSt11char_traitsIcESaIcEE8pop_backEv.exit: ; preds = %11, %1
  %3 = load i64, ptr %2, align 8, !tbaa !19
  %4 = icmp eq i64 %3, 0
  br i1 %4, label %.loopexit, label %5

5:                                                ; preds = %_ZNSt7__cxx1112basic_stringIcSt11char_traitsIcESaIcEE8pop_backEv.exit
  %6 = load ptr, ptr %0, align 8, !tbaa !17
  %7 = getelementptr i8, ptr %6, i64 %3
  %8 = getelementptr i8, ptr %7, i64 -1
  %9 = load i8, ptr %8, align 1, !tbaa !14
  %10 = icmp eq i8 %9, -1
  br i1 %10, label %11, label %_ZNSt7__cxx1112basic_stringIcSt11char_traitsIcESaIcEE8pop_backEv.exit.thread

11:                                               ; preds = %5
  %12 = add i64 %3, -1
  invoke void @_ZNSt7__cxx1112basic_stringIcSt11char_traitsIcESaIcEE8_M_eraseEmm(ptr noundef nonnull align 8 dereferenceable(32) %0, i64 noundef %12, i64 noundef 1)
          to label %_ZNSt7__cxx1112basic_stringIcSt11char_traitsIcESaIcEE8pop_backEv.exit unwind label %13

13:                                               ; preds = %11
  %14 = landingpad { ptr, i32 }
          catch ptr null
  %15 = extractvalue { ptr, i32 } %14, 0
  tail call void @__clang_call_terminate(ptr %15) #16
  unreachable

_ZNSt7__cxx1112basic_stringIcSt11char_traitsIcESaIcEE8pop_backEv.exit.thread: ; preds = %5
  %16 = getelementptr i8, ptr %7, i64 -1
  %17 = add nuw i8 %9, 1
  store i8 %17, ptr %16, align 1, !tbaa !14
  br label %.loopexit

.loopexit:                                        ; preds = %_ZNSt7__cxx1112basic_stringIcSt11char_traitsIcESaIcEE8pop_backEv.exit, %_ZNSt7__cxx1112basic_stringIcSt11char_traitsIcESaIcEE8pop_backEv.exit.thread
  ret void
}